target datalayout = "e-m:e-p270:32:32-p271:32:32-p272:64:64-i64:64-i128:128-f80:128-n8:16:32:64-S128"
target triple = "x86_64-pc-linux-gnu"

@.str = private unnamed_addr constant [3 x i8] c"rb\00", align 1

; Function Attrs: nounwind uwtable
define i32 @wc_FileLoad(ptr noundef %0, ptr noundef %1, ptr noundef %2, ptr noundef %3) #0 {
  %5 = alloca i32, align 4
  %6 = alloca ptr, align 8
  %7 = alloca ptr, align 8
  %8 = alloca ptr, align 8
  %9 = alloca ptr, align 8
  %10 = alloca i32, align 4
  %11 = alloca i64, align 8
  %12 = alloca ptr, align 8
  %13 = alloca i32, align 4
  %14 = alloca i64, align 8
  store ptr %0, ptr %6, align 8, !tbaa !7
  store ptr %1, ptr %7, align 8, !tbaa !10
  store ptr %2, ptr %8, align 8, !tbaa !12
  store ptr %3, ptr %9, align 8, !tbaa !14
  call void @llvm.lifetime.start.p0(i64 4, ptr %10) #7
  call void @llvm.lifetime.start.p0(i64 8, ptr %11) #7
  call void @llvm.lifetime.start.p0(i64 8, ptr %12) #7
  %15 = load ptr, ptr %6, align 8, !tbaa !7
  %16 = icmp eq ptr %15, null
  br i1 %16, label %23, label %17

17:                                               ; preds = %4
  %18 = load ptr, ptr %7, align 8, !tbaa !10
  %19 = icmp eq ptr %18, null
  br i1 %19, label %23, label %20

20:                                               ; preds = %17
  %21 = load ptr, ptr %8, align 8, !tbaa !12
  %22 = icmp eq ptr %21, null
  br i1 %22, label %23, label %24

23:                                               ; preds = %20, %17, %4
  store i32 -173, ptr %5, align 4
  store i32 1, ptr %13, align 4
  br label %101

24:                                               ; preds = %20
  %25 = load ptr, ptr %7, align 8, !tbaa !10
  store ptr null, ptr %25, align 8, !tbaa !7
  %26 = load ptr, ptr %8, align 8, !tbaa !12
  store i64 0, ptr %26, align 8, !tbaa !15
  %27 = load ptr, ptr %6, align 8, !tbaa !7
  %28 = call noalias ptr @fopen(ptr noundef %27, ptr noundef @.str)
  store ptr %28, ptr %12, align 8, !tbaa !17
  %29 = load ptr, ptr %12, align 8, !tbaa !17
  %30 = icmp ne ptr %29, null
  br i1 %30, label %35, label %31

31:                                               ; preds = %24
  br label %32

32:                                               ; preds = %31
  br label %33

33:                                               ; preds = %32
  br label %34

34:                                               ; preds = %33
  store i32 -244, ptr %5, align 4
  store i32 1, ptr %13, align 4
  br label %101

35:                                               ; preds = %24
  %36 = load ptr, ptr %12, align 8, !tbaa !17
  %37 = call i32 @fseek(ptr noundef %36, i64 noundef 0, i32 noundef 2)
  %38 = icmp ne i32 %37, 0
  br i1 %38, label %39, label %45

39:                                               ; preds = %35
  br label %40

40:                                               ; preds = %39
  br label %41

41:                                               ; preds = %40
  br label %42

42:                                               ; preds = %41
  %43 = load ptr, ptr %12, align 8, !tbaa !17
  %44 = call i32 @fclose(ptr noundef %43)
  store i32 -244, ptr %5, align 4
  store i32 1, ptr %13, align 4
  br label %101

45:                                               ; preds = %35
  %46 = load ptr, ptr %12, align 8, !tbaa !17
  %47 = call i64 @ftell(ptr noundef %46)
  store i64 %47, ptr %11, align 8, !tbaa !15
  %48 = load i64, ptr %11, align 8, !tbaa !15
  %49 = icmp slt i64 %48, 0
  br i1 %49, label %50, label %56

50:                                               ; preds = %45
  br label %51

51:                                               ; preds = %50
  br label %52

52:                                               ; preds = %51
  br label %53

53:                                               ; preds = %52
  %54 = load ptr, ptr %12, align 8, !tbaa !17
  %55 = call i32 @fclose(ptr noundef %54)
  store i32 -244, ptr %5, align 4
  store i32 1, ptr %13, align 4
  br label %101

56:                                               ; preds = %45
  %57 = load ptr, ptr %12, align 8, !tbaa !17
  %58 = call i32 @fseek(ptr noundef %57, i64 noundef 0, i32 noundef 0)
  %59 = icmp ne i32 %58, 0
  br i1 %59, label %60, label %66

60:                                               ; preds = %56
  br label %61

61:                                               ; preds = %60
  br label %62

62:                                               ; preds = %61
  br label %63

63:                                               ; preds = %62
  %64 = load ptr, ptr %12, align 8, !tbaa !17
  %65 = call i32 @fclose(ptr noundef %64)
  store i32 -244, ptr %5, align 4
  store i32 1, ptr %13, align 4
  br label %101

66:                                               ; preds = %56
  %67 = load i64, ptr %11, align 8, !tbaa !15
  %68 = icmp sgt i64 %67, 0
  br i1 %68, label %69, label %96

69:                                               ; preds = %66
  %70 = load i64, ptr %11, align 8, !tbaa !15
  %71 = load ptr, ptr %8, align 8, !tbaa !12
  store i64 %70, ptr %71, align 8, !tbaa !15
  %72 = load ptr, ptr %8, align 8, !tbaa !12
  %73 = load i64, ptr %72, align 8, !tbaa !15
  %74 = call ptr @wolfSSL_Malloc(i64 noundef %73)
  %75 = load ptr, ptr %7, align 8, !tbaa !10
  store ptr %74, ptr %75, align 8, !tbaa !7
  %76 = load ptr, ptr %7, align 8, !tbaa !10
  %77 = load ptr, ptr %76, align 8, !tbaa !7
  %78 = icmp eq ptr %77, null
  br i1 %78, label %79, label %83

79:                                               ; preds = %69
  br label %80

80:                                               ; preds = %79
  br label %81

81:                                               ; preds = %80
  br label %82

82:                                               ; preds = %81
  store i32 -125, ptr %10, align 4, !tbaa !3
  br label %95

83:                                               ; preds = %69
  call void @llvm.lifetime.start.p0(i64 8, ptr %14) #7
  %84 = load ptr, ptr %7, align 8, !tbaa !10
  %85 = load ptr, ptr %84, align 8, !tbaa !7
  %86 = load ptr, ptr %8, align 8, !tbaa !12
  %87 = load i64, ptr %86, align 8, !tbaa !15
  %88 = load ptr, ptr %12, align 8, !tbaa !17
  %89 = call i64 @fread(ptr noundef %85, i64 noundef 1, i64 noundef %87, ptr noundef %88)
  store i64 %89, ptr %14, align 8, !tbaa !15
  %90 = load i64, ptr %14, align 8, !tbaa !15
  %91 = load ptr, ptr %8, align 8, !tbaa !12
  %92 = load i64, ptr %91, align 8, !tbaa !15
  %93 = icmp eq i64 %90, %92
  %94 = select i1 %93, i32 0, i32 -1
  store i32 %94, ptr %10, align 4, !tbaa !3
  call void @llvm.lifetime.end.p0(i64 8, ptr %14) #7
  br label %95

95:                                               ; preds = %83, %82
  br label %97

96:                                               ; preds = %66
  store i32 -132, ptr %10, align 4, !tbaa !3
  br label %97

97:                                               ; preds = %96, %95
  %98 = load ptr, ptr %12, align 8, !tbaa !17
  %99 = call i32 @fclose(ptr noundef %98)
  %100 = load i32, ptr %10, align 4, !tbaa !3
  store i32 %100, ptr %5, align 4
  store i32 1, ptr %13, align 4
  br label %101

101:                                              ; preds = %97, %63, %53, %42, %34, %23
  call void @llvm.lifetime.end.p0(i64 8, ptr %12) #7
  call void @llvm.lifetime.end.p0(i64 8, ptr %11) #7
  call void @llvm.lifetime.end.p0(i64 4, ptr %10) #7
  %102 = load i32, ptr %5, align 4
  ret i32 %102
}