; Function Attrs: nounwind uwtable
define range(i32 -244, 1) i32 @wc_FileLoad(ptr noundef readonly captures(address_is_null) %0, ptr noundef writeonly captures(address_is_null) %1, ptr noundef captures(address_is_null) %2, ptr noundef readnone captures(none) %3) local_unnamed_addr #2 {
  %5 = icmp eq ptr %0, null
  %6 = icmp eq ptr %1, null
  %or.cond = or i1 %5, %6
  %7 = icmp eq ptr %2, null
  %or.cond3 = or i1 %or.cond, %7
  br i1 %or.cond3, label %28, label %8

8:                                                ; preds = %4
  store ptr null, ptr %1, align 8, !tbaa !7
  store i64 0, ptr %2, align 8, !tbaa !10
  %9 = tail call noalias ptr @fopen(ptr noundef nonnull %0, ptr noundef nonnull @.str)
  %.not = icmp eq ptr %9, null
  br i1 %.not, label %28, label %10

10:                                               ; preds = %8
  %11 = tail call i32 @fseek(ptr noundef nonnull %9, i64 noundef 0, i32 noundef 2)
  %.not37 = icmp eq i32 %11, 0
  br i1 %.not37, label %12, label %.sink.split

12:                                               ; preds = %10
  %13 = tail call i64 @ftell(ptr noundef nonnull %9)
  %14 = icmp slt i64 %13, 0
  br i1 %14, label %.sink.split, label %15

15:                                               ; preds = %12
  %16 = tail call i32 @fseek(ptr noundef nonnull %9, i64 noundef 0, i32 noundef 0)
  %.not38 = icmp eq i32 %16, 0
  br i1 %.not38, label %17, label %.sink.split

17:                                               ; preds = %15
  %.not39 = icmp eq i64 %13, 0
  br i1 %.not39, label %.sink.split, label %18

18:                                               ; preds = %17
  store i64 %13, ptr %2, align 8, !tbaa !10
  %19 = tail call ptr @wolfSSL_Malloc(i64 noundef %13) #16
  store ptr %19, ptr %1, align 8, !tbaa !7
  %20 = icmp eq ptr %19, null
  br i1 %20, label %.sink.split, label %21

21:                                               ; preds = %18
  %22 = load i64, ptr %2, align 8, !tbaa !10
  %23 = tail call i64 @fread(ptr noundef nonnull %19, i64 noundef 1, i64 noundef %22, ptr noundef nonnull %9)
  %24 = load i64, ptr %2, align 8, !tbaa !10
  %25 = icmp ne i64 %23, %24
  %26 = sext i1 %25 to i32
  br label %.sink.split

.sink.split:                                      ; preds = %21, %18, %17, %15, %12, %10
  %.0.ph = phi i32 [ -244, %10 ], [ -244, %12 ], [ -244, %15 ], [ %26, %21 ], [ -125, %18 ], [ -132, %17 ]
  %27 = tail call i32 @fclose(ptr noundef nonnull %9)
  br label %28

28:                                               ; preds = %.sink.split, %8, %4
  %.0 = phi i32 [ -173, %4 ], [ -244, %8 ], [ %.0.ph, %.sink.split ]
  ret i32 %.0
}